target datalayout = "e-m:e-p270:32:32-p271:32:32-p272:64:64-i64:64-i128:128-f80:128-n8:16:32:64-S128"
target triple = "x86_64-pc-linux-gnu"

@hf_ieee80211_s1g_subchannel_selective_transmission = internal global i32 0, align 4
@.str.3184 = private unnamed_addr constant [26 x i8] c"Channel Activity Schedule\00", align 1
@hf_ieee80211_s1g_sst_sounding_option1 = internal global i32 0, align 4
@hf_ieee80211_s1g_channel_activity_bitmap1 = internal global i32 0, align 4
@hf_ieee80211_s1g_sounding_start_time_present = internal global i32 0, align 4
@hf_ieee80211_s1g_channel_activity_reserved = internal global i32 0, align 4
@hf_ieee80211_s1g_max_trans_width1 = internal global i32 0, align 4
@hf_ieee80211_s1g_sounding_start_time = internal global i32 0, align 4
@ett_s1g_subchannel_selective_transmission = internal global i32 0, align 4

; Function Attrs: null_pointer_is_valid sspstrong uwtable
define internal i32 @dissect_subchannel_selective_transmission(ptr noundef %0, ptr noundef %1, ptr noundef %2, ptr noundef %3) #1 {
  %5 = alloca ptr, align 8
  %6 = alloca ptr, align 8
  %7 = alloca ptr, align 8
  %8 = alloca ptr, align 8
  %9 = alloca i32, align 4
  %10 = alloca i8, align 1
  %11 = alloca i8, align 1
  %12 = alloca ptr, align 8
  %13 = alloca ptr, align 8
  store ptr %0, ptr %5, align 8
  store ptr %1, ptr %6, align 8
  store ptr %2, ptr %7, align 8
  store ptr %3, ptr %8, align 8
  call void @llvm.lifetime.start.p0(i64 4, ptr %9) #19
  store i32 0, ptr %9, align 4
  call void @llvm.lifetime.start.p0(i64 1, ptr %10) #19
  %14 = load ptr, ptr %5, align 8
  %15 = load i32, ptr %9, align 4
  %16 = call zeroext i8 @tvb_get_uint8(ptr noundef %14, i32 noundef %15)
  store i8 %16, ptr %10, align 1
  %17 = load i8, ptr %10, align 1
  %18 = zext i8 %17 to i32
  %19 = and i32 %18, 1
  %20 = icmp eq i32 %19, 0
  br i1 %20, label %21, label %30

21:                                               ; preds = %4
  %22 = load ptr, ptr %7, align 8
  %23 = load ptr, ptr %5, align 8
  %24 = load i32, ptr %9, align 4
  %25 = load i32, ptr @hf_ieee80211_s1g_subchannel_selective_transmission, align 4
  %26 = load i32, ptr @ett_s1g_subchannel_selective_transmission, align 4
  %27 = call ptr @proto_tree_add_bitmask_with_flags(ptr noundef %22, ptr noundef %23, i32 noundef %24, i32 noundef %25, i32 noundef %26, ptr noundef @s1g_subchannel_selective_transmission_headers0, i32 noundef -2147483648, i32 noundef 1)
  %28 = load i32, ptr %9, align 4
  %29 = add i32 %28, 4
  store i32 %29, ptr %9, align 4
  br label %83

30:                                               ; preds = %4
  call void @llvm.lifetime.start.p0(i64 1, ptr %11) #19
  %31 = load ptr, ptr %5, align 8
  %32 = load i32, ptr %9, align 4
  %33 = add i32 %32, 1
  %34 = call zeroext i8 @tvb_get_uint8(ptr noundef %31, i32 noundef %33)
  store i8 %34, ptr %11, align 1
  call void @llvm.lifetime.start.p0(i64 8, ptr %12) #19
  store ptr null, ptr %12, align 8
  call void @llvm.lifetime.start.p0(i64 8, ptr %13) #19
  store ptr null, ptr %13, align 8
  %35 = load ptr, ptr %7, align 8
  %36 = load ptr, ptr %5, align 8
  %37 = load i32, ptr %9, align 4
  %38 = load i32, ptr @ett_s1g_subchannel_selective_transmission, align 4
  %39 = call ptr @proto_tree_add_subtree(ptr noundef %35, ptr noundef %36, i32 noundef %37, i32 noundef -1, i32 noundef %38, ptr noundef %12, ptr noundef @.str.3184)
  store ptr %39, ptr %13, align 8
  %40 = load ptr, ptr %13, align 8
  %41 = load i32, ptr @hf_ieee80211_s1g_sst_sounding_option1, align 4
  %42 = load ptr, ptr %5, align 8
  %43 = load i32, ptr %9, align 4
  %44 = call ptr @proto_tree_add_item(ptr noundef %40, i32 noundef %41, ptr noundef %42, i32 noundef %43, i32 noundef 2, i32 noundef -2147483648)
  %45 = load ptr, ptr %13, align 8
  %46 = load i32, ptr @hf_ieee80211_s1g_channel_activity_bitmap1, align 4
  %47 = load ptr, ptr %5, align 8
  %48 = load i32, ptr %9, align 4
  %49 = call ptr @proto_tree_add_item(ptr noundef %45, i32 noundef %46, ptr noundef %47, i32 noundef %48, i32 noundef 2, i32 noundef -2147483648)
  %50 = load ptr, ptr %13, align 8
  %51 = load i32, ptr @hf_ieee80211_s1g_sounding_start_time_present, align 4
  %52 = load ptr, ptr %5, align 8
  %53 = load i32, ptr %9, align 4
  %54 = call ptr @proto_tree_add_item(ptr noundef %50, i32 noundef %51, ptr noundef %52, i32 noundef %53, i32 noundef 2, i32 noundef -2147483648)
  %55 = load ptr, ptr %13, align 8
  %56 = load i32, ptr @hf_ieee80211_s1g_channel_activity_reserved, align 4
  %57 = load ptr, ptr %5, align 8
  %58 = load i32, ptr %9, align 4
  %59 = call ptr @proto_tree_add_item(ptr noundef %55, i32 noundef %56, ptr noundef %57, i32 noundef %58, i32 noundef 2, i32 noundef -2147483648)
  %60 = load ptr, ptr %13, align 8
  %61 = load i32, ptr @hf_ieee80211_s1g_max_trans_width1, align 4
  %62 = load ptr, ptr %5, align 8
  %63 = load i32, ptr %9, align 4
  %64 = call ptr @proto_tree_add_item(ptr noundef %60, i32 noundef %61, ptr noundef %62, i32 noundef %63, i32 noundef 2, i32 noundef -2147483648)
  %65 = load i32, ptr %9, align 4
  %66 = add i32 %65, 2
  store i32 %66, ptr %9, align 4
  %67 = load i8, ptr %11, align 1
  %68 = zext i8 %67 to i32
  %69 = and i32 %68, 2
  %70 = icmp ne i32 %69, 0
  br i1 %70, label %71, label %80

71:                                               ; preds = %30
  %72 = load ptr, ptr %13, align 8
  %73 = load i32, ptr @hf_ieee80211_s1g_sounding_start_time, align 4
  %74 = load ptr, ptr %5, align 8
  %75 = load i32, ptr %9, align 4
  %76 = call ptr @proto_tree_add_item(ptr noundef %72, i32 noundef %73, ptr noundef %74, i32 noundef %75, i32 noundef 2, i32 noundef -2147483648)
  %77 = load i32, ptr %9, align 4
  %78 = add i32 %77, 2
  store i32 %78, ptr %9, align 4
  %79 = load ptr, ptr %12, align 8
  call void @proto_item_set_len(ptr noundef %79, i32 noundef 4)
  br label %82

80:                                               ; preds = %30
  %81 = load ptr, ptr %12, align 8
  call void @proto_item_set_len(ptr noundef %81, i32 noundef 2)
  br label %82

82:                                               ; preds = %80, %71
  call void @llvm.lifetime.end.p0(i64 8, ptr %13) #19
  call void @llvm.lifetime.end.p0(i64 8, ptr %12) #19
  call void @llvm.lifetime.end.p0(i64 1, ptr %11) #19
  br label %83

83:                                               ; preds = %82, %21
  %84 = load i32, ptr %9, align 4
  call void @llvm.lifetime.end.p0(i64 1, ptr %10) #19
  call void @llvm.lifetime.end.p0(i64 4, ptr %9) #19
  ret i32 %84
}