; Function Attrs: null_pointer_is_valid sspstrong uwtable
define internal range(i32 2, 5) i32 @dissect_subchannel_selective_transmission(ptr noundef %0, ptr readnone captures(none) %1, ptr noundef %2, ptr readnone captures(none) %3) #2 {
  %5 = alloca ptr, align 8
  %6 = tail call zeroext i8 @tvb_get_uint8(ptr noundef %0, i32 noundef 0)
  %7 = and i8 %6, 1
  %8 = icmp eq i8 %7, 0
  br i1 %8, label %9, label %13

9:                                                ; preds = %4
  %10 = load i32, ptr @hf_ieee80211_s1g_subchannel_selective_transmission, align 4
  %11 = load i32, ptr @ett_s1g_subchannel_selective_transmission, align 4
  %12 = tail call ptr @proto_tree_add_bitmask_with_flags(ptr noundef %2, ptr noundef %0, i32 noundef 0, i32 noundef %10, i32 noundef %11, ptr noundef nonnull @s1g_subchannel_selective_transmission_headers0, i32 noundef -2147483648, i32 noundef 1)
  br label %33

13:                                               ; preds = %4
  %14 = tail call zeroext i8 @tvb_get_uint8(ptr noundef %0, i32 noundef 1)
  call void @llvm.lifetime.start.p0(i64 8, ptr nonnull %5) #24
  store ptr null, ptr %5, align 8
  %15 = load i32, ptr @ett_s1g_subchannel_selective_transmission, align 4
  %16 = call ptr @proto_tree_add_subtree(ptr noundef %2, ptr noundef %0, i32 noundef 0, i32 noundef -1, i32 noundef %15, ptr noundef nonnull %5, ptr noundef nonnull @.str.3184)
  %17 = load i32, ptr @hf_ieee80211_s1g_sst_sounding_option1, align 4
  %18 = call ptr @proto_tree_add_item(ptr noundef %16, i32 noundef %17, ptr noundef %0, i32 noundef 0, i32 noundef 2, i32 noundef -2147483648)
  %19 = load i32, ptr @hf_ieee80211_s1g_channel_activity_bitmap1, align 4
  %20 = call ptr @proto_tree_add_item(ptr noundef %16, i32 noundef %19, ptr noundef %0, i32 noundef 0, i32 noundef 2, i32 noundef -2147483648)
  %21 = load i32, ptr @hf_ieee80211_s1g_sounding_start_time_present, align 4
  %22 = call ptr @proto_tree_add_item(ptr noundef %16, i32 noundef %21, ptr noundef %0, i32 noundef 0, i32 noundef 2, i32 noundef -2147483648)
  %23 = load i32, ptr @hf_ieee80211_s1g_channel_activity_reserved, align 4
  %24 = call ptr @proto_tree_add_item(ptr noundef %16, i32 noundef %23, ptr noundef %0, i32 noundef 0, i32 noundef 2, i32 noundef -2147483648)
  %25 = load i32, ptr @hf_ieee80211_s1g_max_trans_width1, align 4
  %26 = call ptr @proto_tree_add_item(ptr noundef %16, i32 noundef %25, ptr noundef %0, i32 noundef 0, i32 noundef 2, i32 noundef -2147483648)
  %27 = and i8 %14, 2
  %.not = icmp eq i8 %27, 0
  br i1 %.not, label %31, label %28

28:                                               ; preds = %13
  %29 = load i32, ptr @hf_ieee80211_s1g_sounding_start_time, align 4
  %30 = call ptr @proto_tree_add_item(ptr noundef %16, i32 noundef %29, ptr noundef %0, i32 noundef 2, i32 noundef 2, i32 noundef -2147483648)
  br label %31

31:                                               ; preds = %13, %28
  %.sink33 = phi i32 [ 4, %28 ], [ 2, %13 ]
  %32 = load ptr, ptr %5, align 8
  call void @proto_item_set_len(ptr noundef %32, i32 noundef %.sink33)
  call void @llvm.lifetime.end.p0(i64 8, ptr nonnull %5) #24
  br label %33

33:                                               ; preds = %31, %9
  %.0 = phi i32 [ 4, %9 ], [ %.sink33, %31 ]
  ret i32 %.0
}